; Function Attrs: mustprogress uwtable
define void @_ZN6icu_7713DecimalFormatC2ERKNS_13UnicodeStringER10UErrorCode(ptr noundef nonnull align 8 dereferenceable(72) %0, ptr noundef nonnull align 8 dereferenceable(64) %1, ptr noundef nonnull align 4 dereferenceable(4) %2) unnamed_addr #1 align 2 personality ptr @__gxx_personality_v0 {
  tail call void @_ZN6icu_7713DecimalFormatC2EPKNS_20DecimalFormatSymbolsER10UErrorCode(ptr noundef nonnull align 8 dereferenceable(72) %0, ptr noundef null, ptr noundef nonnull align 4 dereferenceable(4) %2)
  %4 = load i32, ptr %2, align 4, !tbaa !13
  %5 = icmp slt i32 %4, 1
  br i1 %5, label %8, label %12

6:                                                ; preds = %8, %_ZN6icu_7713DecimalFormat24setPropertiesFromPatternERKNS_13UnicodeStringEiR10UErrorCode.exit
  %7 = landingpad { ptr, i32 }
          cleanup
  tail call void @_ZN6icu_7713DecimalFormatD2Ev(ptr noundef nonnull align 8 dereferenceable(72) %0) #19
  resume { ptr, i32 } %7

8:                                                ; preds = %3
  %9 = getelementptr inbounds nuw i8, ptr %0, i64 64
  %10 = load ptr, ptr %9, align 8, !tbaa !25
  %11 = getelementptr inbounds nuw i8, ptr %10, i64 8
  invoke void @_ZN6icu_776number4impl13PatternParser25parseToExistingPropertiesERKNS_13UnicodeStringERNS1_23DecimalFormatPropertiesENS1_14IgnoreRoundingER10UErrorCode(ptr noundef nonnull align 8 dereferenceable(64) %1, ptr noundef nonnull align 8 dereferenceable(757) %11, i32 noundef 1, ptr noundef nonnull align 4 dereferenceable(4) %2)
          to label %_ZN6icu_7713DecimalFormat24setPropertiesFromPatternERKNS_13UnicodeStringEiR10UErrorCode.exit unwind label %6

_ZN6icu_7713DecimalFormat24setPropertiesFromPatternERKNS_13UnicodeStringEiR10UErrorCode.exit: ; preds = %8
  invoke void @_ZN6icu_7713DecimalFormat5touchER10UErrorCode(ptr noundef nonnull align 8 dereferenceable(72) %0, ptr noundef nonnull align 4 dereferenceable(4) %2)
          to label %12 unwind label %6

12:                                               ; preds = %3, %_ZN6icu_7713DecimalFormat24setPropertiesFromPatternERKNS_13UnicodeStringEiR10UErrorCode.exit
  ret void
}